target datalayout = "e-m:e-p270:32:32-p271:32:32-p272:64:64-i64:64-i128:128-f80:128-n8:16:32:64-S128"
target triple = "x86_64-pc-linux-gnu"

%struct.MPADecodeHeader = type { i32, i32, i32, i32, i32, i32, i32, i32, i32, i32 }
%struct.AVProbeData = type { ptr, ptr, i32, ptr }

@.str.8 = private unnamed_addr constant [4 x i8] c"ID3\00", align 1

; Function Attrs: alwaysinline nounwind willreturn memory(none) uwtable
define internal i32 @av_bswap32(i32 noundef %0) #3 {
  %2 = alloca i32, align 4
  store i32 %0, ptr %2, align 4, !tbaa !9
  %3 = load i32, ptr %2, align 4, !tbaa !9
  %4 = shl i32 %3, 8
  %5 = and i32 %4, 65280
  %6 = load i32, ptr %2, align 4, !tbaa !9
  %7 = lshr i32 %6, 8
  %8 = and i32 %7, 255
  %9 = or i32 %5, %8
  %10 = shl i32 %9, 16
  %11 = load i32, ptr %2, align 4, !tbaa !9
  %12 = lshr i32 %11, 16
  %13 = shl i32 %12, 8
  %14 = and i32 %13, 65280
  %15 = load i32, ptr %2, align 4, !tbaa !9
  %16 = lshr i32 %15, 16
  %17 = lshr i32 %16, 8
  %18 = and i32 %17, 255
  %19 = or i32 %14, %18
  %20 = or i32 %10, %19
  ret i32 %20
}

; Function Attrs: nounwind uwtable
define internal i32 @mp3_read_probe(ptr noundef %0) #0 {
  %2 = alloca i32, align 4
  %3 = alloca ptr, align 8
  %4 = alloca i32, align 4
  %5 = alloca i32, align 4
  %6 = alloca i32, align 4
  %7 = alloca i32, align 4
  %8 = alloca i32, align 4
  %9 = alloca i32, align 4
  %10 = alloca i32, align 4
  %11 = alloca i32, align 4
  %12 = alloca ptr, align 8
  %13 = alloca ptr, align 8
  %14 = alloca ptr, align 8
  %15 = alloca ptr, align 8
  %16 = alloca ptr, align 8
  %17 = alloca %struct.MPADecodeHeader, align 4
  %18 = alloca i32, align 4
  %19 = alloca i32, align 4
  %20 = alloca i32, align 4
  %21 = alloca i32, align 4
  store ptr %0, ptr %3, align 8, !tbaa !4
  call void @llvm.lifetime.start.p0(i64 4, ptr %4) #8
  call void @llvm.lifetime.start.p0(i64 4, ptr %5) #8
  store i32 0, ptr %5, align 4, !tbaa !9
  call void @llvm.lifetime.start.p0(i64 4, ptr %6) #8
  store i32 0, ptr %6, align 4, !tbaa !9
  call void @llvm.lifetime.start.p0(i64 4, ptr %7) #8
  call void @llvm.lifetime.start.p0(i64 4, ptr %8) #8
  call void @llvm.lifetime.start.p0(i64 4, ptr %9) #8
  call void @llvm.lifetime.start.p0(i64 4, ptr %10) #8
  call void @llvm.lifetime.start.p0(i64 4, ptr %11) #8
  call void @llvm.lifetime.start.p0(i64 8, ptr %12) #8
  call void @llvm.lifetime.start.p0(i64 8, ptr %13) #8
  call void @llvm.lifetime.start.p0(i64 8, ptr %14) #8
  call void @llvm.lifetime.start.p0(i64 8, ptr %15) #8
  call void @llvm.lifetime.start.p0(i64 8, ptr %16) #8
  %22 = load ptr, ptr %3, align 8, !tbaa !4
  %23 = getelementptr inbounds nuw %struct.AVProbeData, ptr %22, i32 0, i32 1
  %24 = load ptr, ptr %23, align 8, !tbaa !11
  store ptr %24, ptr %13, align 8, !tbaa !14
  %25 = load ptr, ptr %3, align 8, !tbaa !4
  %26 = getelementptr inbounds nuw %struct.AVProbeData, ptr %25, i32 0, i32 1
  %27 = load ptr, ptr %26, align 8, !tbaa !11
  %28 = load ptr, ptr %3, align 8, !tbaa !4
  %29 = getelementptr inbounds nuw %struct.AVProbeData, ptr %28, i32 0, i32 2
  %30 = load i32, ptr %29, align 8, !tbaa !15
  %31 = sext i32 %30 to i64
  %32 = getelementptr inbounds i8, ptr %27, i64 %31
  %33 = getelementptr inbounds i8, ptr %32, i64 -4
  store ptr %33, ptr %16, align 8, !tbaa !14
  br label %34

34:                                               ; preds = %45, %1
  %35 = load ptr, ptr %13, align 8, !tbaa !14
  %36 = load ptr, ptr %16, align 8, !tbaa !14
  %37 = icmp ult ptr %35, %36
  br i1 %37, label %38, label %43

38:                                               ; preds = %34
  %39 = load ptr, ptr %13, align 8, !tbaa !14
  %40 = load i8, ptr %39, align 1, !tbaa !16
  %41 = icmp ne i8 %40, 0
  %42 = xor i1 %41, true
  br label %43

43:                                               ; preds = %38, %34
  %44 = phi i1 [ false, %34 ], [ %42, %38 ]
  br i1 %44, label %45, label %48

45:                                               ; preds = %43
  %46 = load ptr, ptr %13, align 8, !tbaa !14
  %47 = getelementptr inbounds nuw i8, ptr %46, i32 1
  store ptr %47, ptr %13, align 8, !tbaa !14
  br label %34, !llvm.loop !17

48:                                               ; preds = %43
  store i32 0, ptr %4, align 4, !tbaa !9
  store i32 0, ptr %10, align 4, !tbaa !9
  %49 = load ptr, ptr %13, align 8, !tbaa !14
  store ptr %49, ptr %12, align 8, !tbaa !14
  br label %50

50:                                               ; preds = %175, %48
  %51 = load ptr, ptr %12, align 8, !tbaa !14
  %52 = load ptr, ptr %16, align 8, !tbaa !14
  %53 = icmp ult ptr %51, %52
  br i1 %53, label %54, label %178

54:                                               ; preds = %50
  %55 = load ptr, ptr %12, align 8, !tbaa !14
  store ptr %55, ptr %14, align 8, !tbaa !14
  store i32 0, ptr %7, align 4, !tbaa !9
  store i32 0, ptr %9, align 4, !tbaa !9
  br label %56

56:                                               ; preds = %141, %54
  %57 = load ptr, ptr %14, align 8, !tbaa !14
  %58 = load ptr, ptr %16, align 8, !tbaa !14
  %59 = icmp ult ptr %57, %58
  br i1 %59, label %60, label %144

60:                                               ; preds = %56
  call void @llvm.lifetime.start.p0(i64 40, ptr %17) #8
  call void @llvm.lifetime.start.p0(i64 4, ptr %18) #8
  store i32 0, ptr %18, align 4, !tbaa !9
  call void @llvm.lifetime.start.p0(i64 4, ptr %19) #8
  %61 = load ptr, ptr %14, align 8, !tbaa !14
  %62 = load i32, ptr %61, align 1, !tbaa !16
  %63 = call i32 @av_bswap32(i32 noundef %62) #9
  store i32 %63, ptr %11, align 4, !tbaa !9
  %64 = load i32, ptr %11, align 4, !tbaa !9
  %65 = call i32 @avpriv_mpegaudio_decode_header(ptr noundef %17, i32 noundef %64)
  store i32 %65, ptr %8, align 4, !tbaa !9
  %66 = load i32, ptr %8, align 4, !tbaa !9
  %67 = icmp ne i32 %66, 0
  br i1 %67, label %68, label %69

68:                                               ; preds = %60
  store i32 7, ptr %20, align 4
  br label %138

69:                                               ; preds = %60
  %70 = getelementptr inbounds nuw %struct.MPADecodeHeader, ptr %17, i32 0, i32 0
  %71 = load i32, ptr %70, align 4, !tbaa !19
  %72 = sext i32 %71 to i64
  %73 = load ptr, ptr %16, align 8, !tbaa !14
  %74 = load ptr, ptr %14, align 8, !tbaa !14
  %75 = ptrtoint ptr %73 to i64
  %76 = ptrtoint ptr %74 to i64
  %77 = sub i64 %75, %76
  %78 = icmp sgt i64 %72, %77
  br i1 %78, label %79, label %85

79:                                               ; preds = %69
  %80 = load ptr, ptr %16, align 8, !tbaa !14
  %81 = load ptr, ptr %14, align 8, !tbaa !14
  %82 = ptrtoint ptr %80 to i64
  %83 = ptrtoint ptr %81 to i64
  %84 = sub i64 %82, %83
  br label %89

85:                                               ; preds = %69
  %86 = getelementptr inbounds nuw %struct.MPADecodeHeader, ptr %17, i32 0, i32 0
  %87 = load i32, ptr %86, align 4, !tbaa !19
  %88 = sext i32 %87 to i64
  br label %89

89:                                               ; preds = %85, %79
  %90 = phi i64 [ %84, %79 ], [ %88, %85 ]
  %91 = trunc i64 %90 to i32
  store i32 %91, ptr %19, align 4, !tbaa !9
  %92 = load ptr, ptr %14, align 8, !tbaa !14
  %93 = getelementptr inbounds i8, ptr %92, i64 4
  store ptr %93, ptr %15, align 8, !tbaa !14
  br label %94

94:                                               ; preds = %113, %89
  %95 = load ptr, ptr %15, align 8, !tbaa !14
  %96 = load ptr, ptr %14, align 8, !tbaa !14
  %97 = load i32, ptr %19, align 4, !tbaa !9
  %98 = sext i32 %97 to i64
  %99 = getelementptr inbounds i8, ptr %96, i64 %98
  %100 = icmp ult ptr %95, %99
  br i1 %100, label %101, label %116

101:                                              ; preds = %94
  call void @llvm.lifetime.start.p0(i64 4, ptr %21) #8
  %102 = load ptr, ptr %15, align 8, !tbaa !14
  %103 = load i32, ptr %102, align 1, !tbaa !16
  %104 = call i32 @av_bswap32(i32 noundef %103) #9
  store i32 %104, ptr %21, align 4, !tbaa !9
  %105 = load i32, ptr %21, align 4, !tbaa !9
  %106 = and i32 %105, -127793
  %107 = load i32, ptr %11, align 4, !tbaa !9
  %108 = and i32 %107, -127793
  %109 = icmp eq i32 %106, %108
  %110 = zext i1 %109 to i32
  %111 = load i32, ptr %18, align 4, !tbaa !9
  %112 = add nsw i32 %111, %110
  store i32 %112, ptr %18, align 4, !tbaa !9
  call void @llvm.lifetime.end.p0(i64 4, ptr %21) #8
  br label %113

113:                                              ; preds = %101
  %114 = load ptr, ptr %15, align 8, !tbaa !14
  %115 = getelementptr inbounds nuw i8, ptr %114, i32 1
  store ptr %115, ptr %15, align 8, !tbaa !14
  br label %94, !llvm.loop !21

116:                                              ; preds = %94
  %117 = load i32, ptr %18, align 4, !tbaa !9
  %118 = icmp sgt i32 %117, 2
  br i1 %118, label %119, label %120

119:                                              ; preds = %116
  store i32 7, ptr %20, align 4
  br label %138

120:                                              ; preds = %116
  %121 = getelementptr inbounds nuw %struct.MPADecodeHeader, ptr %17, i32 0, i32 0
  %122 = load i32, ptr %121, align 4, !tbaa !19
  %123 = load i32, ptr %9, align 4, !tbaa !9
  %124 = add nsw i32 %123, %122
  store i32 %124, ptr %9, align 4, !tbaa !9
  %125 = load i32, ptr %19, align 4, !tbaa !9
  %126 = getelementptr inbounds nuw %struct.MPADecodeHeader, ptr %17, i32 0, i32 0
  %127 = load i32, ptr %126, align 4, !tbaa !19
  %128 = icmp slt i32 %125, %127
  br i1 %128, label %129, label %132

129:                                              ; preds = %120
  %130 = load i32, ptr %7, align 4, !tbaa !9
  %131 = add nsw i32 %130, 1
  store i32 %131, ptr %7, align 4, !tbaa !9
  store i32 7, ptr %20, align 4
  br label %138

132:                                              ; preds = %120
  %133 = getelementptr inbounds nuw %struct.MPADecodeHeader, ptr %17, i32 0, i32 0
  %134 = load i32, ptr %133, align 4, !tbaa !19
  %135 = load ptr, ptr %14, align 8, !tbaa !14
  %136 = sext i32 %134 to i64
  %137 = getelementptr inbounds i8, ptr %135, i64 %136
  store ptr %137, ptr %14, align 8, !tbaa !14
  store i32 0, ptr %20, align 4
  br label %138

138:                                              ; preds = %132, %129, %119, %68
  call void @llvm.lifetime.end.p0(i64 4, ptr %19) #8
  call void @llvm.lifetime.end.p0(i64 4, ptr %18) #8
  call void @llvm.lifetime.end.p0(i64 40, ptr %17) #8
  %139 = load i32, ptr %20, align 4
  switch i32 %139, label %243 [
    i32 0, label %140
    i32 7, label %144
  ]

140:                                              ; preds = %138
  br label %141

141:                                              ; preds = %140
  %142 = load i32, ptr %7, align 4, !tbaa !9
  %143 = add nsw i32 %142, 1
  store i32 %143, ptr %7, align 4, !tbaa !9
  br label %56, !llvm.loop !22

144:                                              ; preds = %138, %56
  %145 = load i32, ptr %4, align 4, !tbaa !9
  %146 = load i32, ptr %7, align 4, !tbaa !9
  %147 = icmp sgt i32 %145, %146
  br i1 %147, label %148, label %150

148:                                              ; preds = %144
  %149 = load i32, ptr %4, align 4, !tbaa !9
  br label %152

150:                                              ; preds = %144
  %151 = load i32, ptr %7, align 4, !tbaa !9
  br label %152

152:                                              ; preds = %150, %148
  %153 = phi i32 [ %149, %148 ], [ %151, %150 ]
  store i32 %153, ptr %4, align 4, !tbaa !9
  %154 = load i32, ptr %10, align 4, !tbaa !9
  %155 = load i32, ptr %9, align 4, !tbaa !9
  %156 = icmp sgt i32 %154, %155
  br i1 %156, label %157, label %159

157:                                              ; preds = %152
  %158 = load i32, ptr %10, align 4, !tbaa !9
  br label %161

159:                                              ; preds = %152
  %160 = load i32, ptr %9, align 4, !tbaa !9
  br label %161

161:                                              ; preds = %159, %157
  %162 = phi i32 [ %158, %157 ], [ %160, %159 ]
  store i32 %162, ptr %10, align 4, !tbaa !9
  %163 = load ptr, ptr %12, align 8, !tbaa !14
  %164 = load ptr, ptr %13, align 8, !tbaa !14
  %165 = icmp eq ptr %163, %164
  br i1 %165, label %166, label %174

166:                                              ; preds = %161
  %167 = load i32, ptr %7, align 4, !tbaa !9
  store i32 %167, ptr %5, align 4, !tbaa !9
  %168 = load ptr, ptr %14, align 8, !tbaa !14
  %169 = load ptr, ptr %16, align 8, !tbaa !14
  %170 = getelementptr inbounds nuw i8, ptr %169, i64 4
  %171 = icmp eq ptr %168, %170
  br i1 %171, label %172, label %173

172:                                              ; preds = %166
  store i32 1, ptr %6, align 4, !tbaa !9
  br label %173

173:                                              ; preds = %172, %166
  br label %174

174:                                              ; preds = %173, %161
  br label %175

175:                                              ; preds = %174
  %176 = load ptr, ptr %14, align 8, !tbaa !14
  %177 = getelementptr inbounds i8, ptr %176, i64 1
  store ptr %177, ptr %12, align 8, !tbaa !14
  br label %50, !llvm.loop !23

178:                                              ; preds = %50
  %179 = load i32, ptr %5, align 4, !tbaa !9
  %180 = icmp sge i32 %179, 7
  br i1 %180, label %181, label %182

181:                                              ; preds = %178
  store i32 51, ptr %2, align 4
  store i32 1, ptr %20, align 4
  br label %241

182:                                              ; preds = %178
  %183 = load i32, ptr %4, align 4, !tbaa !9
  %184 = icmp sgt i32 %183, 200
  br i1 %184, label %185, label %193

185:                                              ; preds = %182
  %186 = load ptr, ptr %3, align 8, !tbaa !4
  %187 = getelementptr inbounds nuw %struct.AVProbeData, ptr %186, i32 0, i32 2
  %188 = load i32, ptr %187, align 8, !tbaa !15
  %189 = load i32, ptr %10, align 4, !tbaa !9
  %190 = mul nsw i32 2, %189
  %191 = icmp slt i32 %188, %190
  br i1 %191, label %192, label %193

192:                                              ; preds = %185
  store i32 50, ptr %2, align 4
  store i32 1, ptr %20, align 4
  br label %241

193:                                              ; preds = %185, %182
  %194 = load i32, ptr %4, align 4, !tbaa !9
  %195 = icmp sge i32 %194, 4
  br i1 %195, label %196, label %204

196:                                              ; preds = %193
  %197 = load ptr, ptr %3, align 8, !tbaa !4
  %198 = getelementptr inbounds nuw %struct.AVProbeData, ptr %197, i32 0, i32 2
  %199 = load i32, ptr %198, align 8, !tbaa !15
  %200 = load i32, ptr %10, align 4, !tbaa !9
  %201 = mul nsw i32 2, %200
  %202 = icmp slt i32 %199, %201
  br i1 %202, label %203, label %204

203:                                              ; preds = %196
  store i32 25, ptr %2, align 4
  store i32 1, ptr %20, align 4
  br label %241

204:                                              ; preds = %196, %193
  %205 = load ptr, ptr %13, align 8, !tbaa !14
  %206 = call i32 @ff_id3v2_match(ptr noundef %205, ptr noundef @.str.8)
  %207 = icmp ne i32 %206, 0
  br i1 %207, label %208, label %222

208:                                              ; preds = %204
  %209 = load ptr, ptr %13, align 8, !tbaa !14
  %210 = call i32 @ff_id3v2_tag_len(ptr noundef %209)
  %211 = mul nsw i32 2, %210
  %212 = load ptr, ptr %3, align 8, !tbaa !4
  %213 = getelementptr inbounds nuw %struct.AVProbeData, ptr %212, i32 0, i32 2
  %214 = load i32, ptr %213, align 8, !tbaa !15
  %215 = icmp sge i32 %211, %214
  br i1 %215, label %216, label %222

216:                                              ; preds = %208
  %217 = load ptr, ptr %3, align 8, !tbaa !4
  %218 = getelementptr inbounds nuw %struct.AVProbeData, ptr %217, i32 0, i32 2
  %219 = load i32, ptr %218, align 8, !tbaa !15
  %220 = icmp slt i32 %219, 1048576
  %221 = select i1 %220, i32 12, i32 48
  store i32 %221, ptr %2, align 4
  store i32 1, ptr %20, align 4
  br label %241

222:                                              ; preds = %208, %204
  %223 = load i32, ptr %5, align 4, !tbaa !9
  %224 = icmp sgt i32 %223, 1
  br i1 %224, label %225, label %229

225:                                              ; preds = %222
  %226 = load i32, ptr %6, align 4, !tbaa !9
  %227 = icmp ne i32 %226, 0
  br i1 %227, label %228, label %229

228:                                              ; preds = %225
  store i32 5, ptr %2, align 4
  store i32 1, ptr %20, align 4
  br label %241

229:                                              ; preds = %225, %222
  %230 = load i32, ptr %4, align 4, !tbaa !9
  %231 = icmp sge i32 %230, 1
  br i1 %231, label %232, label %240

232:                                              ; preds = %229
  %233 = load ptr, ptr %3, align 8, !tbaa !4
  %234 = getelementptr inbounds nuw %struct.AVProbeData, ptr %233, i32 0, i32 2
  %235 = load i32, ptr %234, align 8, !tbaa !15
  %236 = load i32, ptr %10, align 4, !tbaa !9
  %237 = mul nsw i32 10, %236
  %238 = icmp slt i32 %235, %237
  br i1 %238, label %239, label %240

239:                                              ; preds = %232
  store i32 1, ptr %2, align 4
  store i32 1, ptr %20, align 4
  br label %241

240:                                              ; preds = %232, %229
  store i32 0, ptr %2, align 4
  store i32 1, ptr %20, align 4
  br label %241

241:                                              ; preds = %240, %239, %228, %216, %203, %192, %181
  call void @llvm.lifetime.end.p0(i64 8, ptr %16) #8
  call void @llvm.lifetime.end.p0(i64 8, ptr %15) #8
  call void @llvm.lifetime.end.p0(i64 8, ptr %14) #8
  call void @llvm.lifetime.end.p0(i64 8, ptr %13) #8
  call void @llvm.lifetime.end.p0(i64 8, ptr %12) #8
  call void @llvm.lifetime.end.p0(i64 4, ptr %11) #8
  call void @llvm.lifetime.end.p0(i64 4, ptr %10) #8
  call void @llvm.lifetime.end.p0(i64 4, ptr %9) #8
  call void @llvm.lifetime.end.p0(i64 4, ptr %8) #8
  call void @llvm.lifetime.end.p0(i64 4, ptr %7) #8
  call void @llvm.lifetime.end.p0(i64 4, ptr %6) #8
  call void @llvm.lifetime.end.p0(i64 4, ptr %5) #8
  call void @llvm.lifetime.end.p0(i64 4, ptr %4) #8
  %242 = load i32, ptr %2, align 4
  ret i32 %242

243:                                              ; preds = %138
  unreachable
}